; Function Attrs: mustprogress nofree nounwind willreturn memory(read, inaccessiblemem: none) uwtable
define noundef zeroext i1 @_ZNK3net9IPAddress16IsIPv4MappedIPv6Ev(ptr noundef nonnull readonly align 8 captures(none) dereferenceable(24) %0) local_unnamed_addr #6 align 2 {
  %2 = getelementptr inbounds nuw i8, ptr %0, i64 8
  %3 = load ptr, ptr %2, align 8, !tbaa !3
  %4 = load ptr, ptr %0, align 8, !tbaa !9
  %5 = ptrtoint ptr %3 to i64
  %6 = ptrtoint ptr %4 to i64
  %7 = sub i64 %5, %6
  %8 = icmp eq i64 %7, 16
  br i1 %8, label %_ZN3net19IPAddressStartsWithILm12EEEbRKNS_9IPAddressERAT__Kh.exit, label %9

_ZN3net19IPAddressStartsWithILm12EEEbRKNS_9IPAddressERAT__Kh.exit: ; preds = %1
  %bcmp.i.i.i.i.i = tail call i32 @bcmp(ptr noundef nonnull dereferenceable(12) @_ZN12_GLOBAL__N_117kIPv4MappedPrefixE, ptr noundef nonnull dereferenceable(12) %4, i64 12)
  %.not9.i.i.i.i.i = icmp eq i32 %bcmp.i.i.i.i.i, 0
  br label %9

9:                                                ; preds = %_ZN3net19IPAddressStartsWithILm12EEEbRKNS_9IPAddressERAT__Kh.exit, %1
  %10 = phi i1 [ false, %1 ], [ %.not9.i.i.i.i.i, %_ZN3net19IPAddressStartsWithILm12EEEbRKNS_9IPAddressERAT__Kh.exit ]
  ret i1 %10
}